; Function Attrs: null_pointer_is_valid sspstrong uwtable
define internal i32 @dissect_h245_EncryptionSync(ptr noundef %0, i32 noundef %1, ptr noundef %2, ptr noundef %3, i32 noundef %4) #1 {
  %6 = getelementptr inbounds nuw i8, ptr %2, i64 48
  %7 = load ptr, ptr %6, align 8
  %8 = getelementptr inbounds nuw i8, ptr %2, i64 16
  %9 = load ptr, ptr %8, align 8
  %10 = getelementptr inbounds nuw i8, ptr %9, i64 408
  %11 = load ptr, ptr %10, align 8
  %12 = tail call ptr @gef_ctx_alloc(ptr noundef %11, ptr noundef null, ptr noundef nonnull @.str.2597)
  store ptr %12, ptr %6, align 8
  %13 = load i32, ptr @ett_h245_EncryptionSync, align 4
  %14 = tail call i32 @dissect_per_sequence(ptr noundef %0, i32 noundef %1, ptr noundef %2, ptr noundef %3, i32 noundef %4, i32 noundef %13, ptr noundef nonnull @EncryptionSync_sequence)
  store ptr %7, ptr %6, align 8
  ret i32 %14
}